(dp1
S'8856/com.zzl.falcon.internal:'
p2
S'2.8%'
p3
s.(dp1
S'8856/com.zzl.falcon.internal:'
p2
S'2.8%'
p3
s.(dp1
S'8856/com.zzl.falcon.internal:'
p2
S'2.8%'
p3
s.(dp1
S'8856/com.zzl.falcon.internal:'
p2
S'2.8%'
p3
s.(dp1
S'8856/com.zzl.falcon.internal:'
p2
S'2.8%'
p3
s.(dp1
S'8856/com.zzl.falcon.internal:'
p2
S'2.8%'
p3
s.(dp1
S'8856/com.zzl.falcon.internal:'
p2
S'2.8%'
p3
s.(dp1
S'8856/com.zzl.falcon.internal:'
p2
S'2.8%'
p3
s.(dp1
S'8856/com.zzl.falcon.internal:'
p2
S'3.2%'
p3
s.(dp1
S'8856/com.zzl.falcon.internal:'
p2
S'3.2%'
p3
s.(dp1
S'8856/com.zzl.falcon.internal:'
p2
S'2.6%'
p3
s.(dp1
S'8856/com.zzl.falcon.internal:'
p2
S'3%'
p3
s.(dp1
S'8856/com.zzl.falcon.internal:'
p2
S'2.9%'
p3
s.(dp1
S'8856/com.zzl.falcon.internal:'
p2
S'2.9%'
p3
s.(dp1
S'8856/com.zzl.falcon.internal:'
p2
S'2.9%'
p3
s.(dp1
S'8856/com.zzl.falcon.internal:'
p2
S'2.7%'
p3
s.(dp1
S'8856/com.zzl.falcon.internal:'
p2
S'2.7%'
p3
s.(dp1
S'8856/com.zzl.falcon.internal:'
p2
S'2.7%'
p3
s.(dp1
S'8856/com.zzl.falcon.internal:'
p2
S'2.7%'
p3
s.(dp1
.(dp1
S'1574/com.zzl.falcon.internal:'
p2
S'0%'
p3
s.(dp1
.(dp1
.(dp1
S'1574/com.zzl.falcon.internal:'
p2
S'0%'
p3
s.(dp1
S'1574/com.zzl.falcon.internal:'
p2
S'0%'
p3
s.(dp1
.(dp1
.(dp1
.(dp1
.